; Function Attrs: mustprogress nofree norecurse nosync nounwind willreturn memory(argmem: readwrite) uwtable
define dso_local void @_ZN5vcpkg19ExtendedBuildResultC2ENS_11BuildResultEOSt10unique_ptrINS_17BinaryControlFileESt14default_deleteIS3_EE(ptr nocapture noundef nonnull writeonly align 8 dereferenceable(104) %0, i32 noundef %1, ptr nocapture noundef nonnull align 8 dereferenceable(8) %2) unnamed_addr #11 align 2 {
  store i32 %1, ptr %0, align 8
  %4 = getelementptr inbounds i8, ptr %0, i64 8
  tail call void @llvm.memset.p0.i64(ptr noundef nonnull align 8 dereferenceable(24) %4, i8 0, i64 24, i1 false)
  %5 = getelementptr inbounds i8, ptr %0, i64 32
  %6 = load i64, ptr %2, align 8
  store i64 %6, ptr %5, align 8
  store ptr null, ptr %2, align 8
  %7 = getelementptr inbounds i8, ptr %0, i64 40
  store i8 0, ptr %7, align 8
  %8 = getelementptr inbounds i8, ptr %0, i64 48
  store i8 0, ptr %8, align 8
  %9 = getelementptr inbounds i8, ptr %0, i64 80
  tail call void @llvm.memset.p0.i64(ptr noundef nonnull align 8 dereferenceable(24) %9, i8 0, i64 24, i1 false)
  ret void
}